; Function Attrs: mustprogress nofree nounwind uwtable
define noundef nonnull ptr @_ZN4dmlc8RegistryIN7xgboost10TreeGenRegEE3GetEv() local_unnamed_addr #9 align 2 personality ptr @__gxx_personality_v0 {
  %1 = load atomic i8, ptr @_ZGVZN4dmlc8RegistryIN7xgboost10TreeGenRegEE3GetEvE4inst acquire, align 8
  %2 = icmp eq i8 %1, 0
  br i1 %2, label %3, label %7, !prof !15

3:                                                ; preds = %0
  %4 = tail call i32 @__cxa_guard_acquire(ptr nonnull @_ZGVZN4dmlc8RegistryIN7xgboost10TreeGenRegEE3GetEvE4inst) #17
  %.not = icmp eq i32 %4, 0
  br i1 %.not, label %7, label %5

5:                                                ; preds = %3
  store i32 0, ptr getelementptr inbounds nuw (i8, ptr @_ZZN4dmlc8RegistryIN7xgboost10TreeGenRegEE3GetEvE4inst, i64 56), align 8, !tbaa !16
  store ptr null, ptr getelementptr inbounds nuw (i8, ptr @_ZZN4dmlc8RegistryIN7xgboost10TreeGenRegEE3GetEvE4inst, i64 64), align 8, !tbaa !21
  tail call void @llvm.memset.p0.i64(ptr noundef nonnull align 8 dereferenceable(48) @_ZZN4dmlc8RegistryIN7xgboost10TreeGenRegEE3GetEvE4inst, i8 0, i64 48, i1 false)
  store ptr getelementptr inbounds nuw (i8, ptr @_ZZN4dmlc8RegistryIN7xgboost10TreeGenRegEE3GetEvE4inst, i64 56), ptr getelementptr inbounds nuw (i8, ptr @_ZZN4dmlc8RegistryIN7xgboost10TreeGenRegEE3GetEvE4inst, i64 72), align 8, !tbaa !22
  store ptr getelementptr inbounds nuw (i8, ptr @_ZZN4dmlc8RegistryIN7xgboost10TreeGenRegEE3GetEvE4inst, i64 56), ptr getelementptr inbounds nuw (i8, ptr @_ZZN4dmlc8RegistryIN7xgboost10TreeGenRegEE3GetEvE4inst, i64 80), align 8, !tbaa !23
  tail call void @llvm.memset.p0.i64(ptr noundef nonnull align 8 dereferenceable(48) getelementptr inbounds nuw (i8, ptr @_ZZN4dmlc8RegistryIN7xgboost10TreeGenRegEE3GetEvE4inst, i64 88), i8 0, i64 48, i1 false)
  %6 = tail call i32 @__cxa_atexit(ptr nonnull @_ZN4dmlc8RegistryIN7xgboost10TreeGenRegEED2Ev, ptr nonnull @_ZZN4dmlc8RegistryIN7xgboost10TreeGenRegEE3GetEvE4inst, ptr nonnull @__dso_handle) #17
  tail call void @__cxa_guard_release(ptr nonnull @_ZGVZN4dmlc8RegistryIN7xgboost10TreeGenRegEE3GetEvE4inst) #17
  br label %7

7:                                                ; preds = %5, %3, %0
  ret ptr @_ZZN4dmlc8RegistryIN7xgboost10TreeGenRegEE3GetEvE4inst
}